target datalayout = "e-m:e-p270:32:32-p271:32:32-p272:64:64-i64:64-i128:128-f80:128-n8:16:32:64-S128"
target triple = "x86_64-pc-linux-gnu"

%struct.uv_loop_s = type { ptr, i32, [2 x ptr], %union.anon, ptr, i32, i64, i32, [2 x ptr], [2 x ptr], ptr, i32, i32, [2 x ptr], %union.pthread_mutex_t, %struct.uv_async_s, %union.pthread_rwlock_t, ptr, [2 x ptr], [2 x ptr], [2 x ptr], [2 x ptr], [2 x ptr], ptr, %struct.uv__io_s, i32, %struct.anon, i64, i64, [2 x i32], %struct.uv__io_s, %struct.uv_signal_s, i32, %struct.uv__io_s, ptr, i32 }
%union.anon = type { ptr }
%union.pthread_mutex_t = type { %struct.__pthread_mutex_s }
%struct.__pthread_mutex_s = type { i32, i32, i32, i32, i32, i16, i16, %struct.__pthread_internal_list }
%struct.__pthread_internal_list = type { ptr, ptr }
%struct.uv_async_s = type { ptr, ptr, i32, ptr, [2 x ptr], %union.anon.0, ptr, i32, ptr, [2 x ptr], i32 }
%union.anon.0 = type { [4 x ptr] }
%union.pthread_rwlock_t = type { %struct.__pthread_rwlock_arch_t }
%struct.__pthread_rwlock_arch_t = type { i32, i32, i32, i32, i32, i32, i32, i32, i8, [7 x i8], i64, i32 }
%struct.anon = type { ptr, i32 }
%struct.uv_signal_s = type { ptr, ptr, i32, ptr, [2 x ptr], %union.anon.1, ptr, i32, ptr, i32, %struct.anon.2, i32, i32 }
%union.anon.1 = type { [4 x ptr] }
%struct.anon.2 = type { ptr, ptr, ptr, i32 }
%struct.uv__io_s = type { ptr, [2 x ptr], [2 x ptr], i32, i32, i32 }
%struct.epoll_event = type <{ i32, %union.epoll_data }>
%union.epoll_data = type { ptr }

; Function Attrs: nounwind uwtable
define dso_local i32 @uv__io_check_fd(ptr noundef %0, i32 noundef %1) #0 {
  %3 = alloca ptr, align 8
  %4 = alloca i32, align 4
  %5 = alloca %struct.epoll_event, align 1
  %6 = alloca i32, align 4
  store ptr %0, ptr %3, align 8, !tbaa !4
  store i32 %1, ptr %4, align 4, !tbaa !9
  call void @llvm.lifetime.start.p0(i64 12, ptr %5) #7
  call void @llvm.lifetime.start.p0(i64 4, ptr %6) #7
  call void @llvm.memset.p0.i64(ptr align 1 %5, i8 0, i64 12, i1 false)
  %7 = getelementptr inbounds nuw %struct.epoll_event, ptr %5, i32 0, i32 0
  store i32 1, ptr %7, align 1, !tbaa !32
  %8 = getelementptr inbounds nuw %struct.epoll_event, ptr %5, i32 0, i32 1
  store i32 -1, ptr %8, align 1, !tbaa !29
  store i32 0, ptr %6, align 4, !tbaa !9
  %9 = load ptr, ptr %3, align 8, !tbaa !4
  %10 = getelementptr inbounds nuw %struct.uv_loop_s, ptr %9, i32 0, i32 7
  %11 = load i32, ptr %10, align 8, !tbaa !11
  %12 = load i32, ptr %4, align 4, !tbaa !9
  %13 = call i32 @epoll_ctl(i32 noundef %11, i32 noundef 1, i32 noundef %12, ptr noundef %5) #7
  %14 = icmp ne i32 %13, 0
  br i1 %14, label %15, label %24

15:                                               ; preds = %2
  %16 = call ptr @__errno_location() #8
  %17 = load i32, ptr %16, align 4, !tbaa !9
  %18 = icmp ne i32 %17, 17
  br i1 %18, label %19, label %23

19:                                               ; preds = %15
  %20 = call ptr @__errno_location() #8
  %21 = load i32, ptr %20, align 4, !tbaa !9
  %22 = sub nsw i32 0, %21
  store i32 %22, ptr %6, align 4, !tbaa !9
  br label %23

23:                                               ; preds = %19, %15
  br label %24

24:                                               ; preds = %23, %2
  %25 = load i32, ptr %6, align 4, !tbaa !9
  %26 = icmp eq i32 %25, 0
  br i1 %26, label %27, label %36

27:                                               ; preds = %24
  %28 = load ptr, ptr %3, align 8, !tbaa !4
  %29 = getelementptr inbounds nuw %struct.uv_loop_s, ptr %28, i32 0, i32 7
  %30 = load i32, ptr %29, align 8, !tbaa !11
  %31 = load i32, ptr %4, align 4, !tbaa !9
  %32 = call i32 @epoll_ctl(i32 noundef %30, i32 noundef 2, i32 noundef %31, ptr noundef %5) #7
  %33 = icmp ne i32 %32, 0
  br i1 %33, label %34, label %35

34:                                               ; preds = %27
  call void @abort() #9
  unreachable

35:                                               ; preds = %27
  br label %36

36:                                               ; preds = %35, %24
  %37 = load i32, ptr %6, align 4, !tbaa !9
  call void @llvm.lifetime.end.p0(i64 4, ptr %6) #7
  call void @llvm.lifetime.end.p0(i64 12, ptr %5) #7
  ret i32 %37
}